target datalayout = "e-m:e-p270:32:32-p271:32:32-p272:64:64-i64:64-i128:128-f80:128-n8:16:32:64-S128"
target triple = "x86_64-pc-linux-gnu"

%struct.config_generic = type { ptr, i32, i32, ptr, ptr, i32, i32, i32, i32, i32, i32, i32, i32, i32, ptr, ptr, %struct.dlist_node, %struct.slist_node, %struct.slist_node, ptr, ptr, i32 }
%struct.dlist_node = type { ptr, ptr }
%struct.slist_node = type { ptr }
%struct.config_string = type { %struct.config_generic, ptr, ptr, ptr, ptr, ptr, ptr, ptr }
%struct.guc_stack = type { ptr, i32, i32, i32, i32, i32, i32, i32, %struct.config_var_value, %struct.config_var_value }
%struct.config_var_value = type { %union.config_var_val, ptr }
%union.config_var_val = type { double }

; Function Attrs: nounwind uwtable
define dso_local void @guc_free(ptr noundef %0) #0 {
  %2 = alloca ptr, align 8
  store ptr %0, ptr %2, align 8
  %3 = load ptr, ptr %2, align 8
  %4 = icmp ne ptr %3, null
  br i1 %4, label %5, label %7

5:                                                ; preds = %1
  %6 = load ptr, ptr %2, align 8
  call void @pfree(ptr noundef %6)
  br label %7

7:                                                ; preds = %5, %1
  ret void
}

; Function Attrs: nounwind uwtable
define internal zeroext i1 @string_field_used(ptr noundef %0, ptr noundef %1) #0 {
  %3 = alloca i1, align 1
  %4 = alloca ptr, align 8
  %5 = alloca ptr, align 8
  %6 = alloca ptr, align 8
  %7 = alloca i32, align 4
  store ptr %0, ptr %4, align 8
  store ptr %1, ptr %5, align 8
  call void @llvm.lifetime.start.p0(i64 8, ptr %6) #16
  %8 = load ptr, ptr %5, align 8
  %9 = load ptr, ptr %4, align 8
  %10 = getelementptr inbounds nuw %struct.config_string, ptr %9, i32 0, i32 1
  %11 = load ptr, ptr %10, align 8
  %12 = load ptr, ptr %11, align 8
  %13 = icmp eq ptr %8, %12
  br i1 %13, label %26, label %14

14:                                               ; preds = %2
  %15 = load ptr, ptr %5, align 8
  %16 = load ptr, ptr %4, align 8
  %17 = getelementptr inbounds nuw %struct.config_string, ptr %16, i32 0, i32 6
  %18 = load ptr, ptr %17, align 8
  %19 = icmp eq ptr %15, %18
  br i1 %19, label %26, label %20

20:                                               ; preds = %14
  %21 = load ptr, ptr %5, align 8
  %22 = load ptr, ptr %4, align 8
  %23 = getelementptr inbounds nuw %struct.config_string, ptr %22, i32 0, i32 2
  %24 = load ptr, ptr %23, align 8
  %25 = icmp eq ptr %21, %24
  br i1 %25, label %26, label %27

26:                                               ; preds = %20, %14, %2
  store i1 true, ptr %3, align 1
  store i32 1, ptr %7, align 4
  br label %56

27:                                               ; preds = %20
  %28 = load ptr, ptr %4, align 8
  %29 = getelementptr inbounds nuw %struct.config_string, ptr %28, i32 0, i32 0
  %30 = getelementptr inbounds nuw %struct.config_generic, ptr %29, i32 0, i32 14
  %31 = load ptr, ptr %30, align 8
  store ptr %31, ptr %6, align 8
  br label %32

32:                                               ; preds = %51, %27
  %33 = load ptr, ptr %6, align 8
  %34 = icmp ne ptr %33, null
  br i1 %34, label %35, label %55

35:                                               ; preds = %32
  %36 = load ptr, ptr %5, align 8
  %37 = load ptr, ptr %6, align 8
  %38 = getelementptr inbounds nuw %struct.guc_stack, ptr %37, i32 0, i32 8
  %39 = getelementptr inbounds nuw %struct.config_var_value, ptr %38, i32 0, i32 0
  %40 = load ptr, ptr %39, align 8
  %41 = icmp eq ptr %36, %40
  br i1 %41, label %49, label %42

42:                                               ; preds = %35
  %43 = load ptr, ptr %5, align 8
  %44 = load ptr, ptr %6, align 8
  %45 = getelementptr inbounds nuw %struct.guc_stack, ptr %44, i32 0, i32 9
  %46 = getelementptr inbounds nuw %struct.config_var_value, ptr %45, i32 0, i32 0
  %47 = load ptr, ptr %46, align 8
  %48 = icmp eq ptr %43, %47
  br i1 %48, label %49, label %50

49:                                               ; preds = %42, %35
  store i1 true, ptr %3, align 1
  store i32 1, ptr %7, align 4
  br label %56

50:                                               ; preds = %42
  br label %51

51:                                               ; preds = %50
  %52 = load ptr, ptr %6, align 8
  %53 = getelementptr inbounds nuw %struct.guc_stack, ptr %52, i32 0, i32 0
  %54 = load ptr, ptr %53, align 8
  store ptr %54, ptr %6, align 8
  br label %32, !llvm.loop !52

55:                                               ; preds = %32
  store i1 false, ptr %3, align 1
  store i32 1, ptr %7, align 4
  br label %56

56:                                               ; preds = %55, %49, %26
  call void @llvm.lifetime.end.p0(i64 8, ptr %6) #16
  %57 = load i1, ptr %3, align 1
  ret i1 %57
}

; Function Attrs: nounwind uwtable
define internal void @set_string_field(ptr noundef %0, ptr noundef %1, ptr noundef %2) #0 {
  %4 = alloca ptr, align 8
  %5 = alloca ptr, align 8
  %6 = alloca ptr, align 8
  %7 = alloca ptr, align 8
  store ptr %0, ptr %4, align 8
  store ptr %1, ptr %5, align 8
  store ptr %2, ptr %6, align 8
  call void @llvm.lifetime.start.p0(i64 8, ptr %7) #16
  %8 = load ptr, ptr %5, align 8
  %9 = load ptr, ptr %8, align 8
  store ptr %9, ptr %7, align 8
  %10 = load ptr, ptr %6, align 8
  %11 = load ptr, ptr %5, align 8
  store ptr %10, ptr %11, align 8
  %12 = load ptr, ptr %7, align 8
  %13 = icmp ne ptr %12, null
  br i1 %13, label %14, label %20

14:                                               ; preds = %3
  %15 = load ptr, ptr %4, align 8
  %16 = load ptr, ptr %7, align 8
  %17 = call zeroext i1 @string_field_used(ptr noundef %15, ptr noundef %16)
  br i1 %17, label %20, label %18

18:                                               ; preds = %14
  %19 = load ptr, ptr %7, align 8
  call void @guc_free(ptr noundef %19)
  br label %20

20:                                               ; preds = %18, %14, %3
  call void @llvm.lifetime.end.p0(i64 8, ptr %7) #16
  ret void
}