; Function Attrs: nounwind uwtable
define internal fastcc void @set_string_field(ptr noundef readonly captures(none) %0, ptr noundef captures(none) %1, ptr noundef %2) unnamed_addr #0 {
  %4 = load ptr, ptr %1, align 8
  store ptr %2, ptr %1, align 8
  %.not = icmp eq ptr %4, null
  br i1 %.not, label %string_field_used.exit.thread, label %5

5:                                                ; preds = %3
  %6 = getelementptr inbounds nuw i8, ptr %0, i64 144
  %7 = load ptr, ptr %6, align 8
  %8 = load ptr, ptr %7, align 8
  %9 = icmp eq ptr %4, %8
  br i1 %9, label %string_field_used.exit.thread, label %10

10:                                               ; preds = %5
  %11 = getelementptr inbounds nuw i8, ptr %0, i64 184
  %12 = load ptr, ptr %11, align 8
  %13 = icmp eq ptr %4, %12
  br i1 %13, label %string_field_used.exit.thread, label %14

14:                                               ; preds = %10
  %15 = getelementptr inbounds nuw i8, ptr %0, i64 152
  %16 = load ptr, ptr %15, align 8
  %17 = icmp eq ptr %4, %16
  br i1 %17, label %string_field_used.exit.thread, label %18

18:                                               ; preds = %14
  %19 = getelementptr inbounds nuw i8, ptr %0, i64 72
  br label %20

20:                                               ; preds = %25, %18
  %.0.in.i = phi ptr [ %19, %18 ], [ %.0.i, %25 ]
  %.0.i = load ptr, ptr %.0.in.i, align 8
  %.not.not.i = icmp eq ptr %.0.i, null
  br i1 %.not.not.i, label %guc_free.exit, label %21

21:                                               ; preds = %20
  %22 = getelementptr inbounds nuw i8, ptr %.0.i, i64 40
  %23 = load ptr, ptr %22, align 8
  %24 = icmp eq ptr %4, %23
  br i1 %24, label %string_field_used.exit.thread, label %25

25:                                               ; preds = %21
  %26 = getelementptr inbounds nuw i8, ptr %.0.i, i64 56
  %27 = load ptr, ptr %26, align 8
  %28 = icmp eq ptr %4, %27
  br i1 %28, label %string_field_used.exit.thread, label %20, !llvm.loop !33

guc_free.exit:                                    ; preds = %20
  tail call void @pfree(ptr noundef nonnull %4) #29
  br label %string_field_used.exit.thread

string_field_used.exit.thread:                    ; preds = %25, %21, %5, %10, %14, %guc_free.exit, %3
  ret void
}